target datalayout = "e-m:e-p270:32:32-p271:32:32-p272:64:64-i64:64-i128:128-f80:128-n8:16:32:64-S128"
target triple = "x86_64-unknown-linux-gnu"

%class.btVector3 = type { [4 x float] }
%class.btKinematicCharacterController = type <{ %class.btCharacterControllerInterface, float, [4 x i8], ptr, ptr, float, float, float, float, float, float, float, float, float, float, float, float, float, %class.btVector3, %class.btVector3, %class.btVector3, %class.btVector3, %class.btVector3, float, %class.btVector3, %class.btQuaternion, %class.btQuaternion, %class.btAlignedObjectArray, i8, [3 x i8], %class.btVector3, float, float, i8, i8, i8, i8, float, %class.btVector3, %class.btVector3, i8, i8, i8, i8 }>
%class.btCharacterControllerInterface = type { %class.btActionInterface }
%class.btActionInterface = type { ptr }
%class.btQuaternion = type { %class.btQuadWord }
%class.btQuadWord = type { [4 x float] }
%class.btAlignedObjectArray = type <{ %class.btAlignedAllocator, [3 x i8], i32, i32, [4 x i8], ptr, i8, [7 x i8] }>
%class.btAlignedAllocator = type { i8 }

; Function Attrs: mustprogress nounwind uwtable
define linkonce_odr dso_local void @_ZN9btVector3C2ERKfS1_S1_(ptr noundef nonnull align 4 dereferenceable(16) %this, ptr noundef nonnull align 4 dereferenceable(4) %_x, ptr noundef nonnull align 4 dereferenceable(4) %_y, ptr noundef nonnull align 4 dereferenceable(4) %_z) unnamed_addr #1 comdat align 2 {
entry:
  %this.addr = alloca ptr, align 8
  %_x.addr = alloca ptr, align 8
  %_y.addr = alloca ptr, align 8
  %_z.addr = alloca ptr, align 8
  store ptr %this, ptr %this.addr, align 8
  store ptr %_x, ptr %_x.addr, align 8
  store ptr %_y, ptr %_y.addr, align 8
  store ptr %_z, ptr %_z.addr, align 8
  %this1 = load ptr, ptr %this.addr, align 8
  %0 = load ptr, ptr %_x.addr, align 8
  %1 = load float, ptr %0, align 4
  %m_floats = getelementptr inbounds %class.btVector3, ptr %this1, i32 0, i32 0
  %arrayidx = getelementptr inbounds [4 x float], ptr %m_floats, i64 0, i64 0
  store float %1, ptr %arrayidx, align 4
  %2 = load ptr, ptr %_y.addr, align 8
  %3 = load float, ptr %2, align 4
  %m_floats2 = getelementptr inbounds %class.btVector3, ptr %this1, i32 0, i32 0
  %arrayidx3 = getelementptr inbounds [4 x float], ptr %m_floats2, i64 0, i64 1
  store float %3, ptr %arrayidx3, align 4
  %4 = load ptr, ptr %_z.addr, align 8
  %5 = load float, ptr %4, align 4
  %m_floats4 = getelementptr inbounds %class.btVector3, ptr %this1, i32 0, i32 0
  %arrayidx5 = getelementptr inbounds [4 x float], ptr %m_floats4, i64 0, i64 2
  store float %5, ptr %arrayidx5, align 4
  %m_floats6 = getelementptr inbounds %class.btVector3, ptr %this1, i32 0, i32 0
  %arrayidx7 = getelementptr inbounds [4 x float], ptr %m_floats6, i64 0, i64 3
  store float 0.000000e+00, ptr %arrayidx7, align 4
  ret void
}

; Function Attrs: mustprogress uwtable
define linkonce_odr dso_local { <2 x float>, <2 x float> } @_ZmlRK9btVector3RKf(ptr noundef nonnull align 4 dereferenceable(16) %v, ptr noundef nonnull align 4 dereferenceable(4) %s) #3 comdat {
entry:
  %retval = alloca %class.btVector3, align 4
  %v.addr = alloca ptr, align 8
  %s.addr = alloca ptr, align 8
  %ref.tmp = alloca float, align 4
  %ref.tmp1 = alloca float, align 4
  %ref.tmp5 = alloca float, align 4
  store ptr %v, ptr %v.addr, align 8
  store ptr %s, ptr %s.addr, align 8
  %0 = load ptr, ptr %v.addr, align 8
  %m_floats = getelementptr inbounds %class.btVector3, ptr %0, i32 0, i32 0
  %arrayidx = getelementptr inbounds [4 x float], ptr %m_floats, i64 0, i64 0
  %1 = load float, ptr %arrayidx, align 4
  %2 = load ptr, ptr %s.addr, align 8
  %3 = load float, ptr %2, align 4
  %mul = fmul float %1, %3
  store float %mul, ptr %ref.tmp, align 4
  %4 = load ptr, ptr %v.addr, align 8
  %m_floats2 = getelementptr inbounds %class.btVector3, ptr %4, i32 0, i32 0
  %arrayidx3 = getelementptr inbounds [4 x float], ptr %m_floats2, i64 0, i64 1
  %5 = load float, ptr %arrayidx3, align 4
  %6 = load ptr, ptr %s.addr, align 8
  %7 = load float, ptr %6, align 4
  %mul4 = fmul float %5, %7
  store float %mul4, ptr %ref.tmp1, align 4
  %8 = load ptr, ptr %v.addr, align 8
  %m_floats6 = getelementptr inbounds %class.btVector3, ptr %8, i32 0, i32 0
  %arrayidx7 = getelementptr inbounds [4 x float], ptr %m_floats6, i64 0, i64 2
  %9 = load float, ptr %arrayidx7, align 4
  %10 = load ptr, ptr %s.addr, align 8
  %11 = load float, ptr %10, align 4
  %mul8 = fmul float %9, %11
  store float %mul8, ptr %ref.tmp5, align 4
  call void @_ZN9btVector3C2ERKfS1_S1_(ptr noundef nonnull align 4 dereferenceable(16) %retval, ptr noundef nonnull align 4 dereferenceable(4) %ref.tmp, ptr noundef nonnull align 4 dereferenceable(4) %ref.tmp1, ptr noundef nonnull align 4 dereferenceable(4) %ref.tmp5)
  %coerce.dive = getelementptr inbounds %class.btVector3, ptr %retval, i32 0, i32 0
  %12 = load { <2 x float>, <2 x float> }, ptr %coerce.dive, align 4
  ret { <2 x float>, <2 x float> } %12
}

; Function Attrs: mustprogress uwtable
define linkonce_odr dso_local { <2 x float>, <2 x float> } @_ZmlRKfRK9btVector3(ptr noundef nonnull align 4 dereferenceable(4) %s, ptr noundef nonnull align 4 dereferenceable(16) %v) #2 comdat {
entry:
  %retval = alloca %class.btVector3, align 4
  %s.addr = alloca ptr, align 8
  %v.addr = alloca ptr, align 8
  store ptr %s, ptr %s.addr, align 8
  store ptr %v, ptr %v.addr, align 8
  %0 = load ptr, ptr %v.addr, align 8
  %1 = load ptr, ptr %s.addr, align 8
  %call = call { <2 x float>, <2 x float> } @_ZmlRK9btVector3RKf(ptr noundef nonnull align 4 dereferenceable(16) %0, ptr noundef nonnull align 4 dereferenceable(4) %1)
  %coerce.dive = getelementptr inbounds %class.btVector3, ptr %retval, i32 0, i32 0
  %2 = getelementptr inbounds { <2 x float>, <2 x float> }, ptr %coerce.dive, i32 0, i32 0
  %3 = extractvalue { <2 x float>, <2 x float> } %call, 0
  store <2 x float> %3, ptr %2, align 4
  %4 = getelementptr inbounds { <2 x float>, <2 x float> }, ptr %coerce.dive, i32 0, i32 1
  %5 = extractvalue { <2 x float>, <2 x float> } %call, 1
  store <2 x float> %5, ptr %4, align 4
  %coerce.dive1 = getelementptr inbounds %class.btVector3, ptr %retval, i32 0, i32 0
  %6 = load { <2 x float>, <2 x float> }, ptr %coerce.dive1, align 4
  ret { <2 x float>, <2 x float> } %6
}

; Function Attrs: mustprogress uwtable
define dso_local { <2 x float>, <2 x float> } @_ZNK30btKinematicCharacterController10getGravityEv(ptr noundef nonnull align 8 dereferenceable(319) %this) #2 align 2 {
entry:
  %retval = alloca %class.btVector3, align 4
  %this.addr = alloca ptr, align 8
  %ref.tmp = alloca float, align 4
  store ptr %this, ptr %this.addr, align 8
  %this1 = load ptr, ptr %this.addr, align 8
  %m_gravity = getelementptr inbounds %class.btKinematicCharacterController, ptr %this1, i32 0, i32 14
  %0 = load float, ptr %m_gravity, align 4
  %fneg = fneg float %0
  store float %fneg, ptr %ref.tmp, align 4
  %m_up = getelementptr inbounds %class.btKinematicCharacterController, ptr %this1, i32 0, i32 38
  %call = call { <2 x float>, <2 x float> } @_ZmlRKfRK9btVector3(ptr noundef nonnull align 4 dereferenceable(4) %ref.tmp, ptr noundef nonnull align 4 dereferenceable(16) %m_up)
  %coerce.dive = getelementptr inbounds %class.btVector3, ptr %retval, i32 0, i32 0
  %1 = getelementptr inbounds { <2 x float>, <2 x float> }, ptr %coerce.dive, i32 0, i32 0
  %2 = extractvalue { <2 x float>, <2 x float> } %call, 0
  store <2 x float> %2, ptr %1, align 4
  %3 = getelementptr inbounds { <2 x float>, <2 x float> }, ptr %coerce.dive, i32 0, i32 1
  %4 = extractvalue { <2 x float>, <2 x float> } %call, 1
  store <2 x float> %4, ptr %3, align 4
  %coerce.dive2 = getelementptr inbounds %class.btVector3, ptr %retval, i32 0, i32 0
  %5 = load { <2 x float>, <2 x float> }, ptr %coerce.dive2, align 4
  ret { <2 x float>, <2 x float> } %5
}