; Function Attrs: mustprogress nofree norecurse nosync nounwind willreturn memory(argmem: read) uwtable
define dso_local { <2 x float>, <2 x float> } @_ZNK30btKinematicCharacterController10getGravityEv(ptr nocapture noundef nonnull readonly align 8 dereferenceable(319) %this) local_unnamed_addr #0 align 2 {
entry:
  %m_gravity = getelementptr inbounds i8, ptr %this, i64 68
  %0 = load float, ptr %m_gravity, align 4
  %fneg = fneg float %0
  %m_up = getelementptr inbounds i8, ptr %this, i64 284
  %1 = load <2 x float>, ptr %m_up, align 4
  %2 = insertelement <2 x float> poison, float %fneg, i64 0
  %3 = shufflevector <2 x float> %2, <2 x float> poison, <2 x i32> zeroinitializer
  %4 = fmul <2 x float> %1, %3
  %arrayidx7.i.i = getelementptr inbounds i8, ptr %this, i64 292
  %5 = load float, ptr %arrayidx7.i.i, align 4
  %mul8.i.i = fmul float %5, %fneg
  %retval.sroa.3.12.vec.insert.i.i = insertelement <2 x float> <float poison, float 0.000000e+00>, float %mul8.i.i, i64 0
  %.fca.0.insert.i.i = insertvalue { <2 x float>, <2 x float> } poison, <2 x float> %4, 0
  %.fca.1.insert.i.i = insertvalue { <2 x float>, <2 x float> } %.fca.0.insert.i.i, <2 x float> %retval.sroa.3.12.vec.insert.i.i, 1
  ret { <2 x float>, <2 x float> } %.fca.1.insert.i.i
}